target datalayout = "e-m:e-p270:32:32-p271:32:32-p272:64:64-i64:64-i128:128-f80:128-n8:16:32:64-S128"
target triple = "x86_64-pc-linux-gnu"

%struct.SDL_WaylandSeat = type { ptr, ptr, ptr, ptr, ptr, %struct.wl_list, i32, i32, %struct.anon, %struct.anon.1, %struct.anon.4, %struct.anon.5, %struct.anon.6 }
%struct.wl_list = type { ptr, ptr }
%struct.anon = type { ptr, ptr, ptr, ptr, ptr, %struct.SDL_WaylandKeyboardRepeat, i64, i16, i16, i32, i8, %struct.anon.0 }
%struct.SDL_WaylandKeyboardRepeat = type { i32, i32, i32, i8, i8, i32, i64, i64, i64, i32, [8 x i8] }
%struct.anon.0 = type { ptr, ptr, ptr, ptr, i32, i32, i32, i32, i32, i32, i32, i32, i32, i32, i32 }
%struct.anon.1 = type { ptr, ptr, ptr, ptr, ptr, ptr, ptr, ptr, i64, i32, i32, %struct.SDL_Point, i32, %struct.anon.2, %struct.anon.3 }
%struct.SDL_Point = type { i32, i32 }
%struct.anon.2 = type { i32, float, i32, float, i64, i32 }
%struct.anon.3 = type { ptr, ptr, ptr, i64, i64, i32 }
%struct.anon.4 = type { ptr, ptr, i64, %struct.wl_list }
%struct.anon.5 = type { ptr, %struct.SDL_Rect, i8, i8 }
%struct.SDL_Rect = type { i32, i32, i32, i32 }
%struct.anon.6 = type { ptr, %struct.wl_list }

; Function Attrs: nounwind uwtable
define internal void @keyboard_handle_repeat_info(ptr noundef %0, ptr noundef %1, i32 noundef %2, i32 noundef %3) #0 {
  %5 = alloca ptr, align 8
  %6 = alloca ptr, align 8
  %7 = alloca i32, align 4
  %8 = alloca i32, align 4
  %9 = alloca ptr, align 8
  store ptr %0, ptr %5, align 8
  store ptr %1, ptr %6, align 8
  store i32 %2, ptr %7, align 4
  store i32 %3, ptr %8, align 4
  call void @llvm.lifetime.start.p0(i64 8, ptr %9) #10
  %10 = load ptr, ptr %5, align 8
  store ptr %10, ptr %9, align 8
  %11 = load i32, ptr %7, align 4
  %12 = icmp slt i32 %11, 0
  br i1 %12, label %13, label %14

13:                                               ; preds = %4
  br label %22

14:                                               ; preds = %4
  %15 = load i32, ptr %7, align 4
  %16 = icmp sgt i32 %15, 1000
  br i1 %16, label %17, label %18

17:                                               ; preds = %14
  br label %20

18:                                               ; preds = %14
  %19 = load i32, ptr %7, align 4
  br label %20

20:                                               ; preds = %18, %17
  %21 = phi i32 [ 1000, %17 ], [ %19, %18 ]
  br label %22

22:                                               ; preds = %20, %13
  %23 = phi i32 [ 0, %13 ], [ %21, %20 ]
  %24 = load ptr, ptr %9, align 8
  %25 = getelementptr inbounds nuw %struct.SDL_WaylandSeat, ptr %24, i32 0, i32 8
  %26 = getelementptr inbounds nuw %struct.anon, ptr %25, i32 0, i32 5
  %27 = getelementptr inbounds nuw %struct.SDL_WaylandKeyboardRepeat, ptr %26, i32 0, i32 0
  store i32 %23, ptr %27, align 8
  %28 = load i32, ptr %8, align 4
  %29 = load ptr, ptr %9, align 8
  %30 = getelementptr inbounds nuw %struct.SDL_WaylandSeat, ptr %29, i32 0, i32 8
  %31 = getelementptr inbounds nuw %struct.anon, ptr %30, i32 0, i32 5
  %32 = getelementptr inbounds nuw %struct.SDL_WaylandKeyboardRepeat, ptr %31, i32 0, i32 1
  store i32 %28, ptr %32, align 4
  %33 = load ptr, ptr %9, align 8
  %34 = getelementptr inbounds nuw %struct.SDL_WaylandSeat, ptr %33, i32 0, i32 8
  %35 = getelementptr inbounds nuw %struct.anon, ptr %34, i32 0, i32 5
  %36 = getelementptr inbounds nuw %struct.SDL_WaylandKeyboardRepeat, ptr %35, i32 0, i32 3
  store i8 1, ptr %36, align 4
  call void @llvm.lifetime.end.p0(i64 8, ptr %9) #10
  ret void
}