; Function Attrs: mustprogress nofree norecurse nosync nounwind willreturn memory(argmem: write) uwtable
define internal void @keyboard_handle_repeat_info(ptr noundef writeonly captures(none) initializes((104, 112), (116, 117)) %0, ptr readnone captures(none) %1, i32 noundef %2, i32 noundef %3) #5 {
  %5 = tail call i32 @llvm.smax.i32(i32 %2, i32 0)
  %6 = tail call i32 @llvm.umin.i32(i32 %5, i32 1000)
  %7 = getelementptr inbounds nuw i8, ptr %0, i64 104
  store i32 %6, ptr %7, align 8
  %8 = getelementptr inbounds nuw i8, ptr %0, i64 108
  store i32 %3, ptr %8, align 4
  %9 = getelementptr inbounds nuw i8, ptr %0, i64 116
  store i8 1, ptr %9, align 4
  ret void
}